libavahi-tqt.so.1 libavahi-tqt-1 #MINVER#
 avahi_qt_poll_get@Base 0.6.16
 _ZN10AvahiWatch10tqt_invokeEiP9TQUObject@Base 0.6.16
 _ZN10AvahiWatch12tqt_propertyEiiP9TQVariant@Base 0.6.16
 _ZN10AvahiWatch16setWatchedEventsE15AvahiWatchEvent@Base 0.6.16
 _ZN10AvahiWatch16staticMetaObjectEv@Base 0.6.16
 _ZN10AvahiWatch19tqt_static_propertyEP8TQObjectiiP9TQVariant@Base 0.6.16
 _ZN10AvahiWatch5gotInEv@Base 0.6.16
 _ZN10AvahiWatch6gotOutEv@Base 0.6.16
 _ZN10AvahiWatch7metaObjE@Base 0.6.16
 _ZN10AvahiWatch8tqt_castEPKc@Base 0.6.16
 _ZN10AvahiWatch8tqt_emitEiP9TQUObject@Base 0.6.16
 _ZN10AvahiWatchC1Ei15AvahiWatchEventPFvPS_iS0_PvES2_@Base 0.6.16
 _ZN10AvahiWatchC2Ei15AvahiWatchEventPFvPS_iS0_PvES2_@Base 0.6.16
 _ZN10AvahiWatchD0Ev@Base 0.6.16
 _ZN10AvahiWatchD1Ev@Base 0.6.16
 _ZN10AvahiWatchD2Ev@Base 0.6.16
 _ZN12AvahiTimeout10tqt_invokeEiP9TQUObject@Base 0.6.16
 _ZN12AvahiTimeout12tqt_propertyEiiP9TQVariant@Base 0.6.16
 _ZN12AvahiTimeout16staticMetaObjectEv@Base 0.6.16
 _ZN12AvahiTimeout19tqt_static_propertyEP8TQObjectiiP9TQVariant@Base 0.6.16
 _ZN12AvahiTimeout6updateEPK7timeval@Base 0.6.16
 _ZN12AvahiTimeout7metaObjE@Base 0.6.16
 _ZN12AvahiTimeout7timeoutEv@Base 0.6.16
 _ZN12AvahiTimeout8tqt_castEPKc@Base 0.6.16
 _ZN12AvahiTimeout8tqt_emitEiP9TQUObject@Base 0.6.16
 _ZN12AvahiTimeoutC1EPK7timevalPFvPS_PvES4_@Base 0.6.16
 _ZN12AvahiTimeoutC2EPK7timevalPFvPS_PvES4_@Base 0.6.16
 _ZN12AvahiTimeoutD0Ev@Base 0.6.16
 _ZN12AvahiTimeoutD1Ev@Base 0.6.16
 _ZN12AvahiTimeoutD2Ev@Base 0.6.16
 _ZNK10AvahiWatch10metaObjectEv@Base 0.6.16
 _ZNK10AvahiWatch9classNameEv@Base 0.6.16
 _ZNK12AvahiTimeout10metaObjectEv@Base 0.6.16
 _ZNK12AvahiTimeout9classNameEv@Base 0.6.16
 _ZNK7TQGList5countEv@Base 0.6.16
 _ZTI10AvahiWatch@Base 0.6.16
 _ZTI12AvahiTimeout@Base 0.6.16
 _ZTI7TQGList@Base 0.6.16
 _ZTS10AvahiWatch@Base 0.6.16
 _ZTS12AvahiTimeout@Base 0.6.16
 _ZTS7TQGList@Base 0.6.16
 _ZTV10AvahiWatch@Base 0.6.16
 _ZTV12AvahiTimeout@Base 0.6.16
 _ZTV7TQGList@Base 0.6.16
 _etext@Base 0.6.16
 _lib_version@Base 0.6.16
